(dp0
S'comments_link'
p1
NsS'internal_id'
p2
S'\xde\xd5\xb4\xf8'
p3
sS'tags'
p4
(S'diveintopython'
p5
S'docbook'
p6
S'html'
p7
tp8
sS'published_date'
p9
ctime
struct_time
p10
((I2009
I3
I27
I22
I20
I42
I4
I86
I-1
tp11
(dp12
tp13
Rp14
sS'published'
p15
I01
sS'title'
p16
S'Dive into history, 2009 edition'
p17
s.